(dp1
S'ClII Cs GBL'
p2
F-6.503831297611498
sS'BrClI MA MCR'
p3
F-4.6757823579729045
sS'BrClI FA THTO'
p4
F-9.6653274938341127
sS'BrClI FA DMSO'
p5
F-8.6243339461323441
sS'BrBrI FA MCR'
p6
F-3.8268514968990979
sS'BrII Cs NM'
p7
F-3.9794258806596439
sS'ClClCl FA NM'
p8
F-4.4631963525125569
sS'BrClI MA NMP'
p9
F-7.9423296695110572
sS'ClII Cs MCR'
p10
F-4.3868571296299601
sS'BrClI FA NM'
p11
F-5.585782249308993
sS'ClII FA DMSO'
p12
F-8.7217962216233289
sS'BrBrI MA DMF'
p13
F-8.2818239932328748
sS'ClClI FA NM'
p14
F-5.7512212535940446
sS'BrClCl Cs THTO'
p15
F-9.9302674615087163
sS'BrBrBr MA GBL'
p16
F-5.9272471215464853
sS'BrClI MA GBL'
p17
F-6.1379855745701324
sS'ClII Cs ACE'
p18
F-5.8545197740508552
sS'ClII FA GBL'
p19
F-5.7482092336855199
sS'BrBrI MA THTO'
p20
F-10.751599340588012
sS'III MA THTO'
p21
F-10.193717856548625
sS'ClII MA MCR'
p22
F-4.8056725688685207
sS'BrII MA MCR'
p23
F-9.9873686416047178
sS'BrII Cs DMSO'
p24
F-9.7072289211969167
sS'III Cs NMP'
p25
F-7.5899300967678256
sS'BrClI FA GBL'
p26
F-6.2352994986417993
sS'BrBrBr Cs GBL'
p27
F-5.527682106783792
sS'BrClI Cs MCR'
p28
F-4.7337130770079439
sS'BrBrBr FA DMSO'
p29
F-9.6586719727405601
sS'ClII Cs DMF'
p30
F-7.9932345651717114
sS'BrBrBr MA THTO'
p31
F-10.588654716365404
sS'ClClCl FA NMP'
p32
F-7.901175748507951
sS'III Cs DMF'
p33
F-8.0335092264396373
sS'ClII MA DMSO'
p34
F-10.405021602414461
sS'BrBrI Cs GBL'
p35
F-5.6397729955978022
sS'BrBrCl MA MCR'
p36
F-4.8195574197869115
sS'BrBrCl FA DMSO'
p37
F-8.9660502730125806
sS'BrBrCl FA GBL'
p38
F-5.3914652309036688
sS'BrClI Cs GBL'
p39
F-5.6452321203781191
sS'BrII MA DMF'
p40
F-8.3371710468456826
sS'BrBrBr Cs MCR'
p41
F-4.2871082663646449
sS'BrII FA MCR'
p42
F-4.6949810693280787
sS'ClII FA NMP'
p43
F-6.9350459984987713
sS'BrBrBr FA NM'
p44
F-4.8759540577652691
sS'III MA GBL'
p45
F-6.085043730371309
sS'BrBrCl MA ACE'
p46
F-5.87803989827494
sS'BrBrBr Cs DMF'
p47
F-6.4570544366373515
sS'BrBrI Cs DMSO'
p48
F-9.6995827930530112
sS'ClII MA THTO'
p49
F-10.866978551795896
sS'BrBrBr FA GBL'
p50
F-5.3920272456272063
sS'III FA DMF'
p51
F-7.0932754005959833
sS'ClII MA DMF'
p52
F-8.6650275207450509
sS'BrClCl Cs MCR'
p53
F-4.6154751980968349
sS'ClClCl FA DMSO'
p54
F-9.9100971342478275
sS'BrClCl FA DMSO'
p55
F-11.097279120081735
sS'BrII FA ACE'
p56
F-5.0191284114703913
sS'III FA NM'
p57
F-4.7768193941729811
sS'ClClCl FA THTO'
p58
F-8.6545812824609847
sS'BrBrBr MA NMP'
p59
F-6.9061440455232699
sS'BrClI Cs ACE'
p60
F-5.436458597583405
sS'BrClI MA NM'
p61
F-4.1454221245953322
sS'BrClCl Cs NMP'
p62
F-7.1340284227832518
sS'ClClCl MA NM'
p63
F-4.9730714917531662
sS'III FA DMSO'
p64
F-8.541607894315602
sS'ClClI Cs THTO'
p65
F-10.168152500030764
sS'BrBrBr Cs NM'
p66
F-3.5983198920931692
sS'BrBrCl FA NM'
p67
F-4.9302606645399836
sS'BrClI Cs NM'
p68
F-3.7442737828048003
sS'ClClCl Cs DMF'
p69
F-6.8126942187916431
sS'BrClCl Cs ACE'
p70
F-5.7501173679692075
sS'BrBrCl Cs THTO'
p71
F-9.4785992493371332
sS'III Cs GBL'
p72
F-5.6994730817425241
sS'ClClI MA ACE'
p73
F-6.3074347763334586
sS'ClClCl Cs DMSO'
p74
F-10.181322543737391
sS'BrBrI Cs NM'
p75
F-3.7732367238252253
sS'BrBrI MA DMSO'
p76
F-10.481065761375071
sS'ClClI MA THTO'
p77
F-11.077222514974322
sS'BrBrCl FA THTO'
p78
F-11.520317506071203
sS'III FA ACE'
p79
F-5.5525352325290687
sS'III FA MCR'
p80
F-4.304221351916139
sS'BrII MA DMSO'
p81
F-10.363989483864779
sS'ClClCl Cs NM'
p82
F-4.7608093988288687
sS'BrClCl MA DMF'
p83
F-8.988512334933775
sS'BrClI FA MCR'
p84
F-4.3606700712613709
sS'ClClI FA GBL'
p85
F-7.203534714948197
sS'ClClCl Cs THTO'
p86
F-9.8603308166832218
sS'ClClCl Cs NMP'
p87
F-7.8528963172785105
sS'BrII MA GBL'
p88
F-6.2696961692956572
sS'ClClI FA DMF'
p89
F-8.2370773947246381
sS'BrII Cs GBL'
p90
F-5.7498957399829767
sS'ClClCl FA GBL'
p91
F-6.6286027509175236
sS'ClClCl MA MCR'
p92
F-8.0276298739852798
sS'ClClI MA GBL'
p93
F-7.0267376393360008
sS'ClClCl MA GBL'
p94
F-7.1969432074820929
sS'BrBrCl Cs MCR'
p95
F-4.4285179190286916
sS'III Cs DMSO'
p96
F-9.6214560430024925
sS'ClClI Cs NMP'
p97
F-8.4171484025945258
sS'BrII Cs THTO'
p98
F-9.5327786175686438
sS'III MA ACE'
p99
F-5.8298451743676303
sS'BrII FA GBL'
p100
F-5.4300988074210954
sS'ClClCl MA ACE'
p101
F-6.5339630591417004
sS'BrBrBr Cs THTO'
p102
F-9.7488254164676214
sS'BrClI MA THTO'
p103
F-11.110035684821245
sS'BrBrI MA NM'
p104
F-3.7809192054717355
sS'ClClI Cs DMSO'
p105
F-9.8588466839905511
sS'BrBrI FA NMP'
p106
F-9.0338380742524294
sS'BrBrBr FA DMF'
p107
F-7.5778848565243662
sS'BrBrI Cs THTO'
p108
F-10.035573439135256
sS'BrBrI FA THTO'
p109
F-10.724548228440518
sS'III MA MCR'
p110
F-9.9491323336606623
sS'ClII MA NM'
p111
F-5.3571301466769423
sS'BrClI Cs DMF'
p112
F-8.081827232776206
sS'ClII Cs THTO'
p113
F-10.029858312492507
sS'ClClI FA ACE'
p114
F-6.1791569930451677
sS'BrClCl MA ACE'
p115
F-6.1245766907568999
sS'III MA NMP'
p116
F-8.0606653114339419
sS'BrBrCl Cs ACE'
p117
F-5.3990399575257202
sS'BrClI Cs DMSO'
p118
F-9.468101541479923
sS'BrClCl MA THTO'
p119
F-10.933489019465107
sS'BrClI MA DMF'
p120
F-8.6990271482532648
sS'III Cs NM'
p121
F-3.6559455061130697
sS'III FA GBL'
p122
F-5.5479731176346645
sS'BrClI Cs THTO'
p123
F-10.137764085751236
sS'BrClCl FA DMF'
p124
F-7.8894109969998105
sS'BrBrI Cs MCR'
p125
F-9.137868036204484
sS'BrII Cs DMF'
p126
F-8.0215869995389202
sS'BrClCl FA NM'
p127
F-6.1385064832609357
sS'BrBrCl MA NM'
p128
F-3.8076158698987568
sS'ClClI Cs MCR'
p129
F-4.4827262836863726
sS'BrII Cs ACE'
p130
F-5.3794143673798125
sS'ClClI MA NMP'
p131
F-8.5238288240617983
sS'BrClCl FA ACE'
p132
F-5.5416249578309857
sS'III Cs ACE'
p133
F-5.4228179054392314
sS'III MA DMF'
p134
F-8.552675340221505
sS'ClII Cs NM'
p135
F-5.2258757777227025
sS'BrBrI MA ACE'
p136
F-5.8742804720224395
sS'BrBrCl Cs DMSO'
p137
F-9.4747566687883324
sS'ClClI Cs NM'
p138
F-4.9771306947939147
sS'BrClCl FA MCR'
p139
F-4.0537751197322347
sS'ClClI MA DMSO'
p140
F-10.744891781215671
sS'BrBrCl Cs NMP'
p141
F-7.56410370050585
sS'BrBrBr Cs ACE'
p142
F-5.4518673326633751
sS'BrII MA NMP'
p143
F-7.8556734938569672
sS'III Cs MCR'
p144
F-4.2888633066861894
sS'BrBrI FA NM'
p145
F-4.1778371656766247
sS'ClII FA THTO'
p146
F-9.0435956062886866
sS'BrBrCl Cs NM'
p147
F-4.806012570238555
sS'ClII MA NMP'
p148
F-8.1942113960726068
sS'III MA DMSO'
p149
F-10.171022518162745
sS'III FA THTO'
p150
F-11.268262566265507
sS'BrBrCl FA MCR'
p151
F-3.97516995754177
sS'BrBrI FA DMF'
p152
F-7.5626226785731427
sS'BrClCl MA GBL'
p153
F-6.9163500544666903
sS'ClClI Cs GBL'
p154
F-6.6054200576166755
sS'BrBrBr Cs NMP'
p155
F-6.9993914779621242
sS'BrBrI MA GBL'
p156
F-6.1010402017638787
sS'ClClI MA MCR'
p157
F-5.0595057790377318
sS'ClClCl Cs MCR'
p158
F-4.5905390311971486
sS'ClII FA DMF'
p159
F-7.1475655481503964
sS'BrBrI FA DMSO'
p160
F-8.3682781753704489
sS'BrBrI FA GBL'
p161
F-5.2827365875143908
sS'BrBrI Cs NMP'
p162
F-7.3685833526005862
sS'BrBrCl Cs GBL'
p163
F-6.4537724988418184
sS'BrII MA THTO'
p164
F-10.830252226684447
sS'BrBrCl MA NMP'
p165
F-8.457887607203503
sS'ClClCl MA DMSO'
p166
F-11.163327818169673
sS'ClClI Cs DMF'
p167
F-8.2984333486851316
sS'ClClI Cs ACE'
p168
F-5.9019445636797156
sS'ClClI MA NM'
p169
F-4.3032790583080676
sS'BrClI FA DMF'
p170
F-8.0539175634341085
sS'ClII Cs DMSO'
p171
F-9.6052351149337394
sS'ClII FA NM'
p172
F-5.3830506388978732
sS'BrBrCl MA DMF'
p173
F-8.5594217520626845
sS'ClClI FA THTO'
p174
F-11.135988853932687
sS'ClClCl FA DMF'
p175
F-8.0847821512706464
sS'III Cs THTO'
p176
F-10.022998915988941
sS'ClClCl MA THTO'
p177
F-11.268368984275259
sS'BrII FA NMP'
p178
F-8.4028030025434575
sS'BrClCl FA THTO'
p179
F-9.3208530903816733
sS'BrBrI FA ACE'
p180
F-5.1248654226062875
sS'BrBrBr MA DMF'
p181
F-8.3977225880701827
sS'ClClCl Cs ACE'
p182
F-6.023770262556452
sS'BrClCl Cs GBL'
p183
F-5.7743226930399407
sS'BrClCl FA NMP'
p184
F-9.0785125388840502
sS'BrBrCl Cs DMF'
p185
F-7.8997558471659639
sS'III FA NMP'
p186
F-8.5078081010686954
sS'BrBrBr MA NM'
p187
F-5.0934170926655256
sS'BrBrBr MA DMSO'
p188
F-10.273012302395772
sS'ClClI FA MCR'
p189
F-3.8394301370976307
sS'ClClCl MA DMF'
p190
F-9.1121297546475422
sS'BrII FA DMF'
p191
F-7.1869198402261869
sS'BrBrI MA NMP'
p192
F-7.1864222547446346
sS'ClII FA ACE'
p193
F-4.7445576693426919
sS'BrClCl Cs DMSO'
p194
F-10.051937796023672
sS'BrClI FA ACE'
p195
F-6.0095150231810619
sS'ClII MA GBL'
p196
F-6.8100334957517346
sS'ClClI MA DMF'
p197
F-8.9390329106774384
sS'BrBrCl FA DMF'
p198
F-6.6209907790692606
sS'BrClCl Cs DMF'
p199
F-7.6331490640205519
sS'BrII FA DMSO'
p200
F-8.6314088669524018
sS'ClII FA MCR'
p201
F-4.0124338849806236
sS'ClClI FA NMP'
p202
F-6.5229860798083399
sS'BrBrBr Cs DMSO'
p203
F-9.6718490594942388
sS'BrClI FA NMP'
p204
F-8.8333491751046704
sS'ClII MA ACE'
p205
F-6.0027263405021039
sS'BrII FA NM'
p206
F-5.2739744117770728
sS'BrBrBr MA MCR'
p207
F-4.5999440737379675
sS'BrBrBr MA ACE'
p208
F-5.7949289925322036
sS'BrII FA THTO'
p209
F-8.6335844819354755
sS'ClClCl FA MCR'
p210
F-3.8418560397782708
sS'BrII Cs NMP'
p211
F-7.8805685510143473
sS'III MA NM'
p212
F-4.1418853807030542
sS'BrBrCl FA NMP'
p213
F-7.6585070133322191
sS'BrClI Cs NMP'
p214
F-7.8468159288047774
sS'BrClCl MA NM'
p215
F-4.9281520287003806
sS'BrClCl MA NMP'
p216
F-8.75394332872429
sS'BrClCl MA DMSO'
p217
F-10.815827494763818
sS'ClII Cs NMP'
p218
F-7.2400584110652204
sS'BrBrI MA MCR'
p219
F-10.280609780667911
sS'BrClCl Cs NM'
p220
F-4.7735781480797268
sS'BrBrCl FA ACE'
p221
F-5.4087458944341487
sS'BrII MA ACE'
p222
F-5.2198929425273501
sS'ClClI FA DMSO'
p223
F-8.4712282959902918
sS'BrBrBr FA THTO'
p224
F-8.4779776041497446
sS'ClClCl Cs GBL'
p225
F-6.6499232996165869
sS'BrBrBr FA ACE'
p226
F-5.4357206950156041
sS'ClClCl MA NMP'
p227
F-8.7851158826533187
sS'BrBrCl MA DMSO'
p228
F-10.840586522838031
sS'BrBrI Cs DMF'
p229
F-7.7523773784857282
sS'BrBrI Cs ACE'
p230
F-5.402882511251474
sS'BrBrCl MA GBL'
p231
F-6.8655760608351608
sS'BrBrBr FA MCR'
p232
F-4.2506434309967114
sS'BrClCl FA GBL'
p233
F-6.2611865388147248
sS'BrII MA NM'
p234
F-3.711267541813748
sS'BrClI MA DMSO'
p235
F-10.410102024449554
sS'BrClI MA ACE'
p236
F-5.8811464590054916
sS'BrBrCl MA THTO'
p237
F-10.932007318966404
sS'BrClCl MA MCR'
p238
F-4.8849947311974402
sS'BrII Cs MCR'
p239
F-8.9695233090316009
sS'ClClCl FA ACE'
p240
F-5.1589073698900707
sS'BrBrBr FA NMP'
p241
F-8.3082190673198451
s.