(dp1
S'ClII Cs GBL'
p2
F-9.6943342899641429
sS'BrClI MA MCR'
p3
F-7.8003956057512358
sS'BrClI FA THTO'
p4
F-13.524125793313505
sS'BrClI FA DMSO'
p5
F-12.523179944816832
sS'BrBrI FA MCR'
p6
F-7.5942328017035159
sS'BrII Cs NM'
p7
F-6.0573520359448514
sS'ClClCl FA NM'
p8
F-6.9565665966142136
sS'BrClI MA NMP'
p9
F-12.973973552193131
sS'ClII Cs MCR'
p10
F-7.7488219987114979
sS'BrClI FA NM'
p11
F-8.2340598740942124
sS'ClII FA DMSO'
p12
F-13.228604244194447
sS'BrBrI MA DMF'
p13
F-11.842742237953388
sS'ClClI FA NM'
p14
F-7.8972577732276532
sS'BrClCl Cs THTO'
p15
F-14.247023102572781
sS'BrBrBr MA GBL'
p16
F-9.4943561047522209
sS'BrClI MA GBL'
p17
F-9.7694937565240139
sS'ClII Cs ACE'
p18
F-8.7538819661554523
sS'ClII FA GBL'
p19
F-9.6017744878550655
sS'BrBrI MA THTO'
p20
F-15.55343606705665
sS'III MA THTO'
p21
F-14.548334078742878
sS'ClII MA MCR'
p22
F-8.0454971078819106
sS'BrII MA MCR'
p23
F-12.196409757913246
sS'BrII Cs DMSO'
p24
F-13.660316216819238
sS'III Cs NMP'
p25
F-12.405642727527587
sS'BrClI FA GBL'
p26
F-9.5214049971499808
sS'BrBrBr Cs GBL'
p27
F-9.022744469313535
sS'BrClI Cs MCR'
p28
F-7.8975242193849828
sS'BrBrBr FA DMSO'
p29
F-13.41552168904173
sS'ClII Cs DMF'
p30
F-11.681253945334943
sS'BrBrBr MA THTO'
p31
F-15.123538288843887
sS'ClClCl FA NMP'
p32
F-11.985977380670725
sS'III Cs DMF'
p33
F-11.935019859335107
sS'ClII MA DMSO'
p34
F-14.396149834617834
sS'BrBrI Cs GBL'
p35
F-9.2706099362457248
sS'BrBrCl MA MCR'
p36
F-7.9479071686739085
sS'BrBrCl FA DMSO'
p37
F-12.869272952739008
sS'BrBrCl FA GBL'
p38
F-9.0119862454749882
sS'BrClI Cs GBL'
p39
F-9.2584066461970096
sS'BrII MA DMF'
p40
F-12.364733567390475
sS'BrBrBr Cs MCR'
p41
F-7.4589664044554329
sS'BrII FA MCR'
p42
F-8.2496313114938449
sS'ClII FA NMP'
p43
F-12.279319907709157
sS'BrBrBr FA NM'
p44
F-7.3324031074685321
sS'III MA GBL'
p45
F-9.9386410502083358
sS'BrBrCl MA ACE'
p46
F-9.00705477538156
sS'BrBrBr Cs DMF'
p47
F-11.201074219727843
sS'BrBrI Cs DMSO'
p48
F-13.390613842142356
sS'ClII MA THTO'
p49
F-15.833392530987014
sS'BrBrBr FA GBL'
p50
F-9.026788599371832
sS'III FA DMF'
p51
F-11.405602183801145
sS'ClII MA DMF'
p52
F-12.38084628915129
sS'BrClCl Cs MCR'
p53
F-7.286247138374728
sS'ClClCl FA DMSO'
p54
F-13.085412513721103
sS'BrClCl FA DMSO'
p55
F-14.612197852824
sS'BrII FA ACE'
p56
F-8.668342405944367
sS'III FA NM'
p57
F-7.489508945527052
sS'ClClCl FA THTO'
p58
F-13.488385599227936
sS'BrBrBr MA NMP'
p59
F-12.396826887150299
sS'BrClI Cs ACE'
p60
F-8.5269783353375281
sS'BrClI MA NM'
p61
F-6.0764556830005727
sS'BrClCl Cs NMP'
p62
F-11.369465563928017
sS'ClClCl MA NM'
p63
F-6.3860215924164727
sS'III FA DMSO'
p64
F-12.985384825462704
sS'ClClI Cs THTO'
p65
F-14.631581314043968
sS'BrBrBr Cs NM'
p66
F-5.3348479762249852
sS'BrBrCl FA NM'
p67
F-7.3521603308569219
sS'BrClI Cs NM'
p68
F-6.0654652215196725
sS'ClClCl Cs DMF'
p69
F-11.305702852806712
sS'BrClCl Cs ACE'
p70
F-8.6609770506032557
sS'BrBrCl Cs THTO'
p71
F-13.344149943053029
sS'III Cs GBL'
p72
F-9.5214271394318271
sS'ClClI MA ACE'
p73
F-9.5317311214057643
sS'ClClCl Cs DMSO'
p74
F-13.422787767866428
sS'BrBrI Cs NM'
p75
F-6.120951088105409
sS'BrBrI MA DMSO'
p76
F-14.213175887179172
sS'ClClI MA THTO'
p77
F-15.588928197760014
sS'BrBrCl FA THTO'
p78
F-15.944726868367775
sS'III FA ACE'
p79
F-9.0520166236980941
sS'III FA MCR'
p80
F-8.0757369931107803
sS'BrII MA DMSO'
p81
F-14.440094189917939
sS'ClClCl Cs NM'
p82
F-6.0627705644729843
sS'BrClCl MA DMF'
p83
F-12.165446653736835
sS'BrClI FA MCR'
p84
F-7.6831574340368816
sS'ClClI FA GBL'
p85
F-10.536062778945103
sS'ClClCl Cs THTO'
p86
F-13.287256775964572
sS'ClClCl Cs NMP'
p87
F-11.609522043881313
sS'BrII MA GBL'
p88
F-10.101988871182844
sS'ClClI FA DMF'
p89
F-11.472036939998635
sS'BrII Cs GBL'
p90
F-9.6732936879751232
sS'ClClCl FA GBL'
p91
F-9.8730763871127127
sS'ClClCl MA MCR'
p92
F-9.6561955459991502
sS'ClClI MA GBL'
p93
F-10.375781892929599
sS'ClClCl MA GBL'
p94
F-10.371468922329083
sS'BrBrCl Cs MCR'
p95
F-7.3698590989032065
sS'III Cs DMSO'
p96
F-13.576083073351832
sS'ClClI Cs NMP'
p97
F-12.32441255418685
sS'BrII Cs THTO'
p98
F-13.359216697421914
sS'III MA ACE'
p99
F-9.2887729471578737
sS'BrII FA GBL'
p100
F-9.3222970868088666
sS'ClClCl MA ACE'
p101
F-9.4424895980393586
sS'BrBrBr Cs THTO'
p102
F-14.276230753381276
sS'BrClI MA THTO'
p103
F-15.700457035325487
sS'BrBrI MA NM'
p104
F-6.0673485868604606
sS'ClClI Cs DMSO'
p105
F-13.37746597267695
sS'BrBrI FA NMP'
p106
F-13.797643404155838
sS'BrBrBr FA DMF'
p107
F-11.248222383282691
sS'BrBrI Cs THTO'
p108
F-14.709149017169784
sS'BrBrI FA THTO'
p109
F-14.900053779722404
sS'III MA MCR'
p110
F-12.245183053782652
sS'ClII MA NM'
p111
F-8.0428134806715086
sS'BrClI Cs DMF'
p112
F-11.786260067273528
sS'ClII Cs THTO'
p113
F-13.5178411604702
sS'ClClI FA ACE'
p114
F-9.0536626578712927
sS'BrClCl MA ACE'
p115
F-9.1821526272909253
sS'III MA NMP'
p116
F-13.153522351310535
sS'BrBrCl Cs ACE'
p117
F-8.3935489340880878
sS'BrClI Cs DMSO'
p118
F-13.1944182254793
sS'BrClCl MA THTO'
p119
F-15.232518639126686
sS'BrClI MA DMF'
p120
F-12.490204615388903
sS'III Cs NM'
p121
F-6.0961982776988792
sS'III FA GBL'
p122
F-9.523462425369166
sS'BrClI Cs THTO'
p123
F-14.37917978338748
sS'BrClCl FA DMF'
p124
F-11.230462465254478
sS'BrBrI Cs MCR'
p125
F-11.477119537125944
sS'BrII Cs DMF'
p126
F-12.040050392671095
sS'BrClCl FA NM'
p127
F-8.4716080244316778
sS'BrBrCl MA NM'
p128
F-6.0090046140006814
sS'ClClI Cs MCR'
p129
F-7.5887838621188859
sS'BrII Cs ACE'
p130
F-8.9477516315107053
sS'ClClI MA NMP'
p131
F-13.078559699279154
sS'BrClCl FA ACE'
p132
F-8.6756703120329082
sS'III Cs ACE'
p133
F-8.831622098379345
sS'III MA DMF'
p134
F-12.606924247971758
sS'ClII Cs NM'
p135
F-7.840088603272978
sS'BrBrI MA ACE'
p136
F-9.3005384421494899
sS'BrBrCl Cs DMSO'
p137
F-12.929381931109971
sS'ClClI Cs NM'
p138
F-6.6340250693423188
sS'BrClCl FA MCR'
p139
F-7.089972352920527
sS'ClClI MA DMSO'
p140
F-14.346719982774832
sS'BrBrCl Cs NMP'
p141
F-10.529627128500238
sS'BrBrBr Cs ACE'
p142
F-8.4723977457002455
sS'BrII MA NMP'
p143
F-12.541161760203146
sS'III Cs MCR'
p144
F-7.9748162533632208
sS'BrBrI FA NM'
p145
F-6.3370058645777769
sS'ClII FA THTO'
p146
F-14.561504677458275
sS'BrBrCl Cs NM'
p147
F-6.6716927074512222
sS'ClII MA NMP'
p148
F-13.244421781044215
sS'III MA DMSO'
p149
F-14.283715307342884
sS'III FA THTO'
p150
F-16.493487638720197
sS'BrBrCl FA MCR'
p151
F-7.2866963236671261
sS'BrBrI FA DMF'
p152
F-11.284405043630299
sS'BrClCl MA GBL'
p153
F-10.112937462174195
sS'ClClI Cs GBL'
p154
F-9.8581252056874842
sS'BrBrBr Cs NMP'
p155
F-11.642267701405386
sS'BrBrI MA GBL'
p156
F-9.72004547054261
sS'ClClI MA MCR'
p157
F-8.2397311079609512
sS'ClClCl Cs MCR'
p158
F-7.4713990586563526
sS'ClII FA DMF'
p159
F-11.472076243750953
sS'BrBrI FA DMSO'
p160
F-12.613186960108697
sS'BrBrI FA GBL'
p161
F-8.9630937221645777
sS'BrBrI Cs NMP'
p162
F-11.822865107559268
sS'BrBrCl Cs GBL'
p163
F-9.5861809524030779
sS'BrII MA THTO'
p164
F-15.874940306474826
sS'BrBrCl MA NMP'
p165
F-12.323227940895327
sS'ClClCl MA DMSO'
p166
F-14.339112205737088
sS'ClClI Cs DMF'
p167
F-11.298635797274207
sS'ClClI Cs ACE'
p168
F-7.543392983603578
sS'ClClI MA NM'
p169
F-6.3811990915183641
sS'BrClI FA DMF'
p170
F-11.612060559411264
sS'ClII Cs DMSO'
p171
F-13.459337681513512
sS'ClII FA NM'
p172
F-7.7635149729348116
sS'BrBrCl MA DMF'
p173
F-11.980578418841313
sS'ClClI FA THTO'
p174
F-14.955850945021432
sS'ClClCl FA DMF'
p175
F-11.300886007148373
sS'III Cs THTO'
p176
F-14.978238438589228
sS'ClClCl MA THTO'
p177
F-15.38018737354253
sS'BrII FA NMP'
p178
F-12.949780620511085
sS'BrClCl FA THTO'
p179
F-13.112240097726371
sS'BrBrI FA ACE'
p180
F-8.3834003547130393
sS'BrBrBr MA DMF'
p181
F-11.989510677516233
sS'ClClCl Cs ACE'
p182
F-8.8332180189699852
sS'BrClCl Cs GBL'
p183
F-9.2588299814921484
sS'BrClCl FA NMP'
p184
F-13.151686516407366
sS'BrBrCl Cs DMF'
p185
F-11.190936694871988
sS'III FA NMP'
p186
F-13.43096088682683
sS'BrBrBr MA NM'
p187
F-7.593634607256468
sS'BrBrBr MA DMSO'
p188
F-13.941455181583574
sS'ClClI FA MCR'
p189
F-7.4155356656871723
sS'ClClCl MA DMF'
p190
F-12.224828858250596
sS'BrII FA DMF'
p191
F-11.530864544934335
sS'BrBrI MA NMP'
p192
F-13.028331577891088
sS'ClII FA ACE'
p193
F-8.5698817785338317
sS'BrClCl Cs DMSO'
p194
F-13.299337555459978
sS'BrClI FA ACE'
p195
F-9.4478747350140129
sS'ClII MA GBL'
p196
F-10.114356582080953
sS'ClClI MA DMF'
p197
F-12.575050093471578
sS'BrBrCl FA DMF'
p198
F-10.462768664766509
sS'BrClCl Cs DMF'
p199
F-11.070025077037871
sS'BrII FA DMSO'
p200
F-13.081079905226654
sS'ClII FA MCR'
p201
F-7.8613404307573331
sS'ClClI FA NMP'
p202
F-11.485280733955751
sS'BrBrBr Cs DMSO'
p203
F-13.145382459398441
sS'BrClI FA NMP'
p204
F-13.593201836400517
sS'ClII MA ACE'
p205
F-9.3018213944348975
sS'BrII FA NM'
p206
F-7.9686639620049551
sS'BrBrBr MA MCR'
p207
F-7.8602992166089107
sS'BrBrBr MA ACE'
p208
F-8.9932525472921991
sS'BrII FA THTO'
p209
F-13.402627422488242
sS'ClClCl FA MCR'
p210
F-7.1383908470908564
sS'BrII Cs NMP'
p211
F-11.761210341869482
sS'III MA NM'
p212
F-6.2998253231406851
sS'BrBrCl FA NMP'
p213
F-11.863972875802061
sS'BrClI Cs NMP'
p214
F-12.090846348670315
sS'BrClCl MA NM'
p215
F-6.8274772151524541
sS'BrClCl MA NMP'
p216
F-12.690572347703824
sS'BrClCl MA DMSO'
p217
F-14.207782802165012
sS'ClII Cs NMP'
p218
F-12.289062040320781
sS'BrBrI MA MCR'
p219
F-9.2373442696016212
sS'BrClCl Cs NM'
p220
F-6.0874949144862391
sS'BrBrCl FA ACE'
p221
F-8.5004397439719117
sS'BrII MA ACE'
p222
F-9.0890111695681846
sS'ClClI FA DMSO'
p223
F-12.427290606418261
sS'BrBrBr FA THTO'
p224
F-13.683990166504174
sS'ClClCl Cs GBL'
p225
F-9.8101999914717855
sS'BrBrBr FA ACE'
p226
F-8.6142080051228156
sS'ClClCl MA NMP'
p227
F-12.615917148132137
sS'BrBrCl MA DMSO'
p228
F-14.219440910092995
sS'BrBrI Cs DMF'
p229
F-11.095377962215512
sS'BrBrI Cs ACE'
p230
F-8.7463600960577708
sS'BrBrCl MA GBL'
p231
F-10.041988708773419
sS'BrBrBr FA MCR'
p232
F-7.5446133766984085
sS'BrClCl FA GBL'
p233
F-9.614239781565443
sS'BrII MA NM'
p234
F-6.0041870941992945
sS'BrClI MA DMSO'
p235
F-14.173737097371967
sS'BrClI MA ACE'
p236
F-9.1934688697898483
sS'BrBrCl MA THTO'
p237
F-15.221732957620224
sS'BrClCl MA MCR'
p238
F-7.9765726649416573
sS'BrII Cs MCR'
p239
F-11.976359017012758
sS'ClClCl FA ACE'
p240
F-8.1934984917276807
sS'BrBrBr FA NMP'
p241
F-12.934487853729346
s.