(dp1
S'BrBrBr MA GBL'
p2
F-9.4943561047522209
sS'ClII Cs CH3OH'
p3
F-5.675741191424585
sS'ClClCl Cs PYR'
p4
F-9.818565280293436
sS'BrBrCl Cs DMA'
p5
F-11.584422829529261
sS'BrII FA CHCl3'
p6
F-4.9889222847570984
sS'BrClI FA H2O'
p7
F-9.1354893964443793
sS'BrClI MA NMP'
p8
F-12.973973552193131
sS'BrBrI FA ETH'
p9
F-10.127450595720848
sS'BrClCl MA DMA'
p10
F-12.441885944896594
sS'ClClI Cs PYR'
p11
F-10.189140720605751
sS'BrBrI FA NMP'
p12
F-13.797643404155838
sS'ClClCl Cs CH3OH'
p13
F-5.3314851152969522
sS'BrII Cs DMSO'
p14
F-13.660316216819238
sS'BrClI FA IPA'
p15
F-10.641340798254427
sS'BrClCl Cs CHCl3'
p16
F-3.8300180442332952
sS'ClClCl FA NMP'
p17
F-11.985977380670725
sS'BrII MA DMA'
p18
F-13.254622723856148
sS'BrClI Cs GBL'
p19
F-9.2584066461970096
sS'BrII MA DMF'
p20
F-12.364733567390475
sS'ClII Cs CHCl3'
p21
F-4.1615530338081319
sS'BrII MA ETH'
p22
F-8.4651653345066542
sS'ClII FA NMP'
p23
F-12.279319907709157
sS'BrII MA H2O'
p24
F-8.5615913974912523
sS'BrII Cs DMF'
p25
F-12.040050392671095
sS'BrII Cs DMA'
p26
F-12.43655843338415
sS'BrBrBr MA H2O'
p27
F-5.9320689966686375
sS'BrBrCl Cs ETH'
p28
F-9.6774914082219148
sS'BrBrCl FA IPA'
p29
F-9.4806048119152191
sS'ClClCl FA DMSO'
p30
F-13.085412513721103
sS'BrBrBr Cs CHCl3'
p31
F-4.1288615559835842
sS'BrClCl MA THTO'
p32
F-15.232518639126686
sS'ClClCl FA THTO'
p33
F-13.488385599227936
sS'BrBrBr FA IPA'
p34
F-7.4553122814868402
sS'BrClCl MA FAM'
p35
F-9.4411115316606491
sS'BrClI MA NM'
p36
F-6.0764556830005727
sS'BrBrI FA FAM'
p37
F-9.6604183539265289
sS'ClClCl MA NM'
p38
F-6.3860215924164727
sS'ClII FA FAM'
p39
F-8.1500186893279025
sS'BrBrBr Cs NM'
p40
F-5.3348479762249852
sS'BrClI Cs H2O'
p41
F-6.4489905820684514
sS'BrBrCl MA H2O'
p42
F-8.5782993427614116
sS'BrBrI FA H2O'
p43
F-7.9226363779968958
sS'BrBrBr Cs ETH'
p44
F-6.0514276588675466
sS'ClClI MA THTO'
p45
F-15.588928197760014
sS'III FA MCR'
p46
F-8.0757369931107803
sS'BrII FA ETH'
p47
F-9.8171244683895829
sS'BrClI FA GBL'
p48
F-9.5214049971499808
sS'BrBrCl FA CH3OH'
p49
F-5.718148011202099
sS'ClClCl MA GBL'
p50
F-10.371468922329083
sS'III Cs ETH'
p51
F-6.3744664993956111
sS'BrII MA CH3OH'
p52
F-8.5181706314744474
sS'III MA ACE'
p53
F-9.2887729471578737
sS'BrII FA GBL'
p54
F-9.3222970868088666
sS'BrClI MA FAM'
p55
F-9.576487308439587
sS'ClII Cs H2O'
p56
F-6.373044370599394
sS'BrClI MA THTO'
p57
F-15.700457035325487
sS'BrBrI MA NM'
p58
F-6.0673485868604606
sS'BrBrCl MA ETH'
p59
F-6.5683543914386888
sS'ClClI Cs CH3OH'
p60
F-5.1599393502048869
sS'BrBrI FA PYR'
p61
F-7.0155602360623472
sS'BrClI Cs DMSO'
p62
F-13.1944182254793
sS'BrClI MA DMF'
p63
F-12.490204615388903
sS'ClClCl FA FAM'
p64
F-9.7382683970058679
sS'BrClI Cs THTO'
p65
F-14.37917978338748
sS'BrBrBr FA NM'
p66
F-7.3324031074685321
sS'ClClI Cs MCR'
p67
F-7.5887838621188859
sS'ClClI Cs CHCl3'
p68
F-3.9668472443133576
sS'BrII MA NMP'
p69
F-12.541161760203146
sS'BrBrI FA NM'
p70
F-6.3370058645777769
sS'ClII FA THTO'
p71
F-14.561504677458275
sS'BrBrCl Cs THTO'
p72
F-13.344149943053029
sS'BrClCl MA IPA'
p73
F-8.0077923909067525
sS'BrBrCl MA PYR'
p74
F-10.900980185610885
sS'ClClCl FA CH3OH'
p75
F-8.3846260774615136
sS'BrBrI FA DMF'
p76
F-11.284405043630299
sS'BrClCl MA GBL'
p77
F-10.112937462174195
sS'BrII Cs NMP'
p78
F-11.761210341869482
sS'ClII FA DMA'
p79
F-11.912832262948633
sS'ClII FA DMF'
p80
F-11.472076243750953
sS'BrBrI Cs NMP'
p81
F-11.822865107559268
sS'BrBrCl Cs GBL'
p82
F-9.5861809524030779
sS'III Cs DMF'
p83
F-11.935019859335107
sS'III FA H2O'
p84
F-8.8232467095394487
sS'BrII Cs CH3OH'
p85
F-5.3527568583223042
sS'ClClI MA NM'
p86
F-6.3811990915183641
sS'ClII Cs DMSO'
p87
F-13.459337681513512
sS'ClClI Cs THTO'
p88
F-14.631581314043968
sS'ClClI FA THTO'
p89
F-14.955850945021432
sS'BrBrBr MA DMA'
p90
F-12.495465371188141
sS'BrClCl Cs ACE'
p91
F-8.6609770506032557
sS'BrBrBr MA DMF'
p92
F-11.989510677516233
sS'ClClCl Cs ACE'
p93
F-8.8332180189699852
sS'BrClCl Cs GBL'
p94
F-9.2588299814921484
sS'BrBrBr MA CHCl3'
p95
F-4.5003115099213638
sS'III MA IPA'
p96
F-8.2483662867051564
sS'BrClCl MA CH3OH'
p97
F-5.6222994689444743
sS'ClClCl MA FAM'
p98
F-9.5195286812766522
sS'ClII MA GBL'
p99
F-10.114356582080953
sS'ClII MA IPA'
p100
F-7.9923849397660973
sS'BrII FA FAM'
p101
F-8.1685214084113671
sS'BrClI FA ACE'
p102
F-9.4478747350140129
sS'ClClCl MA THTO'
p103
F-15.38018737354253
sS'ClClI MA CH3OH'
p104
F-5.7602347273161039
sS'BrClI FA NMP'
p105
F-13.593201836400517
sS'ClClI FA CHCl3'
p106
F-4.8407861740299767
sS'ClII Cs NM'
p107
F-7.840088603272978
sS'BrBrCl FA DMF'
p108
F-10.462768664766509
sS'III MA NM'
p109
F-6.2998253231406851
sS'BrBrCl FA ACE'
p110
F-8.5004397439719117
sS'BrClCl FA IPA'
p111
F-7.4143079868537933
sS'BrBrBr MA CH3OH'
p112
F-8.6670746566190431
sS'BrII Cs THTO'
p113
F-13.359216697421914
sS'BrII MA ACE'
p114
F-9.0890111695681846
sS'BrBrI Cs FAM'
p115
F-8.0928245458332633
sS'BrBrCl FA ETH'
p116
F-10.145693379656063
sS'ClClCl MA NMP'
p117
F-12.615917148132137
sS'BrBrI Cs DMF'
p118
F-11.095377962215512
sS'BrBrI Cs ACE'
p119
F-8.7463600960577708
sS'BrBrI Cs DMA'
p120
F-12.173966819682486
sS'ClII Cs ETH'
p121
F-6.3170646921637301
sS'BrClCl FA PYR'
p122
F-3.1729103305695401
sS'BrClI Cs PYR'
p123
F-10.067401120853351
sS'BrBrI FA CH3OH'
p124
F-7.7669809519245527
sS'BrII Cs H2O'
p125
F-8.4745191664308663
sS'ClClI FA NMP'
p126
F-11.485280733955751
sS'BrClI FA PYR'
p127
F-11.753967733923467
sS'ClClCl Cs IPA'
p128
F-7.3842065764562621
sS'ClII FA DMSO'
p129
F-13.228604244194447
sS'ClClI FA NM'
p130
F-7.8972577732276532
sS'BrBrCl Cs FAM'
p131
F-8.0931661464560829
sS'BrBrBr FA FAM'
p132
F-10.039387870894677
sS'ClClI FA H2O'
p133
F-9.7648415709823482
sS'III MA THTO'
p134
F-14.548334078742878
sS'ClII MA MCR'
p135
F-8.0454971078819106
sS'BrII MA MCR'
p136
F-12.196409757913246
sS'III Cs NMP'
p137
F-12.405642727527587
sS'ClII FA CH3OH'
p138
F-8.2238003170769307
sS'BrBrBr FA DMSO'
p139
F-13.41552168904173
sS'ClII FA H2O'
p140
F-6.416076872453786
sS'BrBrCl MA MCR'
p141
F-7.9479071686739085
sS'BrBrI Cs ETH'
p142
F-5.9799204034208566
sS'BrBrBr Cs IPA'
p143
F-7.3357963106833388
sS'ClII MA FAM'
p144
F-9.5573805296505618
sS'III Cs DMA'
p145
F-12.331849279518469
sS'BrBrCl FA CHCl3'
p146
F-4.4472478168994858
sS'ClClCl Cs H2O'
p147
F-6.4141340277217402
sS'III Cs CH3OH'
p148
F-8.3915303934359802
sS'BrClI Cs IPA'
p149
F-7.4352673033138394
sS'ClClCl Cs ETH'
p150
F-9.9239410900082827
sS'III FA DMA'
p151
F-12.823772376383188
sS'III Cs DMSO'
p152
F-13.576083073351832
sS'III FA CHCl3'
p153
F-5.133516770653614
sS'ClClCl MA PYR'
p154
F-10.600922331930816
sS'BrClCl Cs NMP'
p155
F-11.369465563928017
sS'BrClI Cs NM'
p156
F-6.0654652215196725
sS'III Cs IPA'
p157
F-7.7322194269217297
sS'ClClCl Cs DMSO'
p158
F-13.422787767866428
sS'BrClI MA ETH'
p159
F-9.741684774904444
sS'BrBrI MA DMSO'
p160
F-14.213175887179172
sS'ClClI FA DMA'
p161
F-11.568111466704663
sS'BrClI Cs CH3OH'
p162
F-8.73186933635575
sS'ClClI FA DMF'
p163
F-11.472036939998635
sS'ClClCl FA GBL'
p164
F-9.8730763871127127
sS'III FA CH3OH'
p165
F-8.4400262732355991
sS'ClClI Cs NMP'
p166
F-12.32441255418685
sS'ClClI FA ETH'
p167
F-6.9839640953007871
sS'BrBrI MA MCR'
p168
F-9.2373442696016212
sS'ClClI MA CHCl3'
p169
F-4.6874890531379849
sS'BrBrCl Cs CHCl3'
p170
F-3.9629088903664931
sS'ClClCl MA ACE'
p171
F-9.4424895980393586
sS'BrBrBr MA ETH'
p172
F-9.3656313798908002
sS'ClClI Cs DMSO'
p173
F-13.37746597267695
sS'ClClCl FA CHCl3'
p174
F-4.3539447106603708
sS'BrClI FA CH3OH'
p175
F-8.6121798367092826
sS'BrBrCl FA DMA'
p176
F-13.020762019556379
sS'BrBrCl FA DMSO'
p177
F-12.869272952739008
sS'BrClI MA CHCl3'
p178
F-4.9876674875388023
sS'III Cs NM'
p179
F-6.0961982776988792
sS'BrBrCl FA THTO'
p180
F-15.944726868367775
sS'BrClCl FA DMF'
p181
F-11.230462465254478
sS'BrClI FA FAM'
p182
F-9.5201108468135445
sS'BrBrI Cs GBL'
p183
F-9.2706099362457248
sS'BrII FA PYR'
p184
F-14.673947955894677
sS'BrBrI Cs IPA'
p185
F-7.254685770125489
sS'ClClCl FA H2O'
p186
F-7.6551369405716905
sS'III MA FAM'
p187
F-9.3014756925968722
sS'BrII MA PYR'
p188
F-14.433686890148676
sS'BrBrI MA ACE'
p189
F-9.3005384421494899
sS'BrClCl MA ETH'
p190
F-10.178402990573126
sS'BrClCl FA MCR'
p191
F-7.089972352920527
sS'BrBrCl MA CH3OH'
p192
F-5.707173853282228
sS'BrII FA CH3OH'
p193
F-7.9471811789627775
sS'BrBrCl MA DMSO'
p194
F-14.219440910092995
sS'ClClI Cs ETH'
p195
F-6.1803526784050069
sS'BrBrBr FA THTO'
p196
F-13.683990166504174
sS'BrBrCl FA MCR'
p197
F-7.2866963236671261
sS'BrBrI FA IPA'
p198
F-8.4453231114534653
sS'BrClCl MA CHCl3'
p199
F-4.2458412183087271
sS'BrBrBr MA FAM'
p200
F-9.0915384772024783
sS'BrBrBr Cs NMP'
p201
F-11.642267701405386
sS'ClClI MA MCR'
p202
F-8.2397311079609512
sS'ClClCl Cs MCR'
p203
F-7.4713990586563526
sS'BrBrI FA DMSO'
p204
F-12.613186960108697
sS'BrBrI FA GBL'
p205
F-8.9630937221645777
sS'ClClI Cs FAM'
p206
F-8.6776608672593998
sS'ClClCl MA DMSO'
p207
F-14.339112205737088
sS'ClClI Cs DMF'
p208
F-11.298635797274207
sS'ClClI Cs ACE'
p209
F-7.543392983603578
sS'BrClCl FA FAM'
p210
F-9.4865690725792025
sS'ClClI Cs DMA'
p211
F-11.784715037135053
sS'BrClI FA DMF'
p212
F-11.612060559411264
sS'BrBrI Cs CH3OH'
p213
F-5.8186876459723766
sS'BrClI FA DMA'
p214
F-13.089520548830583
sS'ClII FA PYR'
p215
F-6.9418887136358522
sS'III Cs THTO'
p216
F-14.978238438589228
sS'BrBrI FA ACE'
p217
F-8.3834003547130393
sS'BrBrCl Cs DMF'
p218
F-11.190936694871988
sS'BrII Cs ETH'
p219
F-6.1763605001639776
sS'BrClCl FA H2O'
p220
F-9.6627761105185179
sS'BrBrBr MA NM'
p221
F-7.593634607256468
sS'BrBrCl Cs PYR'
p222
F-9.8643976644347742
sS'BrBrBr MA DMSO'
p223
F-13.941455181583574
sS'ClClI FA MCR'
p224
F-7.4155356656871723
sS'BrBrI Cs CHCl3'
p225
F-4.2090424719716495
sS'BrClCl Cs DMF'
p226
F-11.070025077037871
sS'BrII FA DMSO'
p227
F-13.081079905226654
sS'BrClCl Cs DMA'
p228
F-11.843646406596408
sS'BrBrCl Cs H2O'
p229
F-5.6414600036859657
sS'BrBrBr Cs CH3OH'
p230
F-5.3546604528054456
sS'ClClCl MA CH3OH'
p231
F-9.670957914296137
sS'BrBrBr FA CH3OH'
p232
F-8.0655352964000393
sS'ClClCl MA IPA'
p233
F-8.0720824007388803
sS'BrClI FA THTO'
p234
F-13.524125793313505
sS'BrBrBr MA ACE'
p235
F-8.9932525472921991
sS'BrClCl Cs FAM'
p236
F-8.3552122347590956
sS'BrClCl MA MCR'
p237
F-7.9765726649416573
sS'BrBrCl FA NMP'
p238
F-11.863972875802061
sS'BrClI Cs ACE'
p239
F-8.5269783353375281
sS'BrClCl MA NM'
p240
F-6.8274772151524541
sS'BrClCl MA DMSO'
p241
F-14.207782802165012
sS'BrClI FA CHCl3'
p242
F-4.8047643452372464
sS'BrClI Cs ETH'
p243
F-9.4898645311874112
sS'III FA ETH'
p244
F-9.1939728872381004
sS'ClII FA IPA'
p245
F-8.3614175438653593
sS'BrII Cs IPA'
p246
F-7.4939812364606135
sS'ClClCl MA DMA'
p247
F-12.730574937393888
sS'BrBrI MA PYR'
p248
F-11.21579530436075
sS'ClClCl MA DMF'
p249
F-12.224828858250596
sS'BrClI MA DMSO'
p250
F-14.173737097371967
sS'BrBrCl MA THTO'
p251
F-15.221732957620224
sS'BrBrI MA ETH'
p252
F-9.4737784054754961
sS'BrBrBr MA IPA'
p253
F-7.9304314764876382
sS'BrII Cs FAM'
p254
F-8.7672944702238489
sS'BrII Cs NM'
p255
F-6.0573520359448514
sS'BrBrBr FA DMA'
p256
F-11.599097648973341
sS'BrClCl Cs THTO'
p257
F-14.247023102572781
sS'BrBrBr FA DMF'
p258
F-11.248222383282691
sS'ClII Cs ACE'
p259
F-8.7538819661554523
sS'BrBrBr MA PYR'
p260
F-10.742806637085412
sS'BrBrI MA CH3OH'
p261
F-8.0828569769335701
sS'BrBrBr Cs ACE'
p262
F-8.4723977457002455
sS'BrBrI FA CHCl3'
p263
F-4.9562637409248103
sS'BrBrBr Cs GBL'
p264
F-9.022744469313535
sS'BrBrBr MA THTO'
p265
F-15.123538288843887
sS'III FA FAM'
p266
F-9.7031457646053312
sS'ClII MA DMSO'
p267
F-14.396149834617834
sS'BrBrCl MA GBL'
p268
F-10.041988708773419
sS'BrBrI FA MCR'
p269
F-7.5942328017035159
sS'BrII Cs CHCl3'
p270
F-4.3034559724191928
sS'BrBrBr Cs DMF'
p271
F-11.201074219727843
sS'BrBrBr Cs DMA'
p272
F-11.624096008814886
sS'ClII MA THTO'
p273
F-15.833392530987014
sS'ClClCl FA PYR'
p274
F-9.6725930487533578
sS'BrClI Cs CHCl3'
p275
F-4.581426380118339
sS'BrBrBr Cs FAM'
p276
F-8.2581827305684286
sS'BrII FA ACE'
p277
F-8.668342405944367
sS'BrBrCl FA FAM'
p278
F-12.364837972387692
sS'ClClI Cs GBL'
p279
F-9.8581252056874842
sS'ClII MA H2O'
p280
F-8.6953234036481923
sS'ClClI Cs IPA'
p281
F-7.4730206487593955
sS'ClClCl Cs DMA'
p282
F-11.730632589700202
sS'BrBrCl FA NM'
p283
F-7.3521603308569219
sS'ClClCl Cs DMF'
p284
F-11.305702852806712
sS'BrBrCl MA CHCl3'
p285
F-4.3941915544320711
sS'ClClI MA ACE'
p286
F-9.5317311214057643
sS'BrBrI Cs NM'
p287
F-6.120951088105409
sS'III MA PYR'
p288
F-1.6308305369731391
sS'III FA ACE'
p289
F-9.0520166236980941
sS'III MA CH3OH'
p290
F-8.6277397499010622
sS'BrII MA DMSO'
p291
F-14.440094189917939
sS'BrClI FA MCR'
p292
F-7.6831574340368816
sS'III MA H2O'
p293
F-8.28482181133724
sS'ClClI FA GBL'
p294
F-10.536062778945103
sS'ClClI FA IPA'
p295
F-9.6102096457180473
sS'BrII MA GBL'
p296
F-10.101988871182844
sS'BrClCl FA ETH'
p297
F-9.1978562398156392
sS'BrBrBr FA CHCl3'
p298
F-4.7759329883788366
sS'BrBrBr Cs THTO'
p299
F-14.276230753381276
sS'BrClI FA DMSO'
p300
F-12.523179944816832
sS'BrBrI Cs H2O'
p301
F-5.6430400266281628
sS'BrBrI MA THTO'
p302
F-15.55343606705665
sS'BrBrI FA THTO'
p303
F-14.900053779722404
sS'BrClI Cs DMF'
p304
F-11.786260067273528
sS'ClII Cs THTO'
p305
F-13.5178411604702
sS'ClClCl FA IPA'
p306
F-9.8180203538476967
sS'BrClI Cs DMA'
p307
F-15.567646007443573
sS'III FA IPA'
p308
F-9.2895190552949565
sS'BrBrCl Cs ACE'
p309
F-8.3935489340880878
sS'ClClI Cs H2O'
p310
F-5.5475895671945672
sS'ClClCl Cs CHCl3'
p311
F-3.6845608300158408
sS'BrII Cs ACE'
p312
F-8.9477516315107053
sS'ClClCl MA CHCl3'
p313
F-4.1333300928321028
sS'BrII FA IPA'
p314
F-7.7152710180373001
sS'BrClCl FA ACE'
p315
F-8.6756703120329082
sS'BrBrCl MA FAM'
p316
F-9.0666120396493728
sS'III MA DMF'
p317
F-12.606924247971758
sS'BrBrCl Cs DMSO'
p318
F-12.929381931109971
sS'III MA DMA'
p319
F-13.103848741754929
sS'BrBrCl Cs NM'
p320
F-6.6716927074512222
sS'III MA DMSO'
p321
F-14.283715307342884
sS'BrClI Cs MCR'
p322
F-7.8975242193849828
sS'BrBrI MA GBL'
p323
F-9.72004547054261
sS'BrII Cs PYR'
p324
F-0.12623473122306125
sS'BrBrI MA IPA'
p325
F-7.8037161875662973
sS'BrBrI MA CHCl3'
p326
F-4.881403369591002
sS'BrBrCl MA NMP'
p327
F-12.323227940895327
sS'BrClCl FA DMA'
p328
F-10.914046789093897
sS'BrClI MA PYR'
p329
F-10.808923985478197
sS'BrBrBr FA GBL'
p330
F-9.026788599371832
sS'BrClCl Cs CH3OH'
p331
F-8.6084945933002306
sS'ClII FA NM'
p332
F-7.7635149729348116
sS'ClClI MA PYR'
p333
F-10.726835408890024
sS'ClClCl MA ETH'
p334
F-6.7253930073768897
sS'BrClCl Cs H2O'
p335
F-5.583955474603008
sS'BrII FA NMP'
p336
F-12.949780620511085
sS'BrII FA H2O'
p337
F-6.7355320356074051
sS'ClClI MA ETH'
p338
F-9.9633772465913477
sS'III MA ETH'
p339
F-9.4293497565118916
sS'BrBrI Cs THTO'
p340
F-14.709149017169784
sS'BrBrI MA NMP'
p341
F-13.028331577891088
sS'BrBrCl Cs IPA'
p342
F-7.327637847806769
sS'ClClI FA PYR'
p343
F-9.9174462991698036
sS'BrClI FA NM'
p344
F-8.2340598740942124
sS'III FA PYR'
p345
F-6.9625226167533505
sS'ClClI FA ACE'
p346
F-9.0536626578712927
sS'BrClI Cs NMP'
p347
F-12.090846348670315
sS'BrClCl MA ACE'
p348
F-9.1821526272909253
sS'ClII Cs NMP'
p349
F-12.289062040320781
sS'BrClCl Cs NM'
p350
F-6.0874949144862391
sS'ClClCl Cs GBL'
p351
F-9.8101999914717855
sS'III MA CHCl3'
p352
F-4.83923849483035
sS'BrClI MA DMA'
p353
F-12.304453828371971
sS'BrII Cs GBL'
p354
F-9.6732936879751232
sS'ClII MA ETH'
p355
F-9.7626772617705129
sS'BrBrBr Cs MCR'
p356
F-7.4589664044554329
sS'BrBrBr FA MCR'
p357
F-7.5446133766984085
sS'ClII FA ETH'
p358
F-9.8117306595812064
sS'BrClCl Cs ETH'
p359
F-6.1635534504568623
sS'ClII FA MCR'
p360
F-7.8613404307573331
sS'III Cs PYR'
p361
F-10.561108625708155
sS'BrII MA NM'
p362
F-6.0041870941992945
sS'BrClCl Cs DMSO'
p363
F-13.299337555459978
sS'BrClI MA H2O'
p364
F-8.659389716954248
sS'BrClCl MA PYR'
p365
F-10.832111534891787
sS'BrBrCl Cs NMP'
p366
F-10.529627128500238
sS'BrClCl FA CHCl3'
p367
F-4.6117582158905046
sS'BrBrBr FA NMP'
p368
F-12.934487853729346
sS'BrBrBr FA PYR'
p369
F-14.697591687420767
sS'ClII Cs GBL'
p370
F-9.6943342899641429
sS'BrClI MA MCR'
p371
F-7.8003956057512358
sS'III FA GBL'
p372
F-9.523462425369166
sS'ClClCl FA NM'
p373
F-6.9565665966142136
sS'BrBrI MA FAM'
p374
F-9.3297674452440518
sS'ClII Cs MCR'
p375
F-7.7488219987114979
sS'BrBrI MA DMF'
p376
F-11.842742237953388
sS'BrBrI MA DMA'
p377
F-13.026757881763542
sS'ClII FA GBL'
p378
F-9.6017744878550655
sS'ClII Cs DMA'
p379
F-12.244056507677548
sS'BrBrI MA H2O'
p380
F-8.5285278898675667
sS'ClII Cs DMF'
p381
F-11.681253945334943
sS'BrClCl FA NMP'
p382
F-13.151686516407366
sS'ClClCl FA ACE'
p383
F-8.1934984917276807
sS'BrBrCl FA GBL'
p384
F-9.0119862454749882
sS'BrII FA MCR'
p385
F-8.2496313114938449
sS'ClClCl FA ETH'
p386
F-9.2289294544509115
sS'III MA GBL'
p387
F-9.9386410502083358
sS'BrBrCl MA ACE'
p388
F-9.00705477538156
sS'BrBrI Cs DMSO'
p389
F-13.390613842142356
sS'BrClCl FA CH3OH'
p390
F-8.3232837614505097
sS'ClII MA DMA'
p391
F-13.194373697796085
sS'ClII MA DMF'
p392
F-12.38084628915129
sS'BrBrBr FA H2O'
p393
F-9.0105171683583229
sS'BrClCl FA DMSO'
p394
F-14.612197852824
sS'BrII MA FAM'
p395
F-9.0840023791909719
sS'III FA NM'
p396
F-7.489508945527052
sS'BrBrBr MA NMP'
p397
F-12.396826887150299
sS'III FA DMSO'
p398
F-12.985384825462704
sS'BrClCl Cs MCR'
p399
F-7.286247138374728
sS'BrClCl Cs IPA'
p400
F-7.5057727322577836
sS'BrBrCl FA H2O'
p401
F-9.5635272754867309
sS'ClClCl MA H2O'
p402
F-6.5914641349001526
sS'III Cs CHCl3'
p403
F-4.4346523759148431
sS'III Cs GBL'
p404
F-9.5214271394318271
sS'ClClCl Cs FAM'
p405
F-8.5468512796243523
sS'BrBrBr Cs PYR'
p406
F-9.8219477742644266
sS'III FA DMF'
p407
F-11.405602183801145
sS'III Cs ACE'
p408
F-8.831622098379345
sS'BrII MA IPA'
p409
F-9.612723981841409
sS'BrBrI Cs PYR'
p410
F-10.380391094254602
sS'BrClI MA GBL'
p411
F-9.7694937565240139
sS'BrBrBr Cs H2O'
p412
F-5.7196448142171397
sS'ClClCl Cs NM'
p413
F-6.0627705644729843
sS'BrClCl MA DMF'
p414
F-12.165446653736835
sS'ClClCl Cs THTO'
p415
F-13.287256775964572
sS'ClClCl Cs NMP'
p416
F-11.609522043881313
sS'ClII Cs FAM'
p417
F-8.6316596541578647
sS'ClClCl MA MCR'
p418
F-9.6561955459991502
sS'ClClI MA GBL'
p419
F-10.375781892929599
sS'ClClI MA IPA'
p420
F-8.254225935064019
sS'BrBrCl Cs MCR'
p421
F-7.3698590989032065
sS'BrClCl Cs PYR'
p422
F-10.035604894863791
sS'ClClI Cs NM'
p423
F-6.6340250693423188
sS'ClClI FA FAM'
p424
F-9.8749336340831029
sS'III MA MCR'
p425
F-12.245183053782652
sS'ClII MA NM'
p426
F-8.0428134806715086
sS'III MA NMP'
p427
F-13.153522351310535
sS'BrClCl FA NM'
p428
F-8.4716080244316778
sS'BrClI MA ACE'
p429
F-9.1934688697898483
sS'BrClI FA ETH'
p430
F-10.005718480882379
sS'BrClI Cs FAM'
p431
F-8.8006675956974973
sS'BrBrCl MA NM'
p432
F-6.0090046140006814
sS'ClClI MA NMP'
p433
F-13.078559699279154
sS'BrClCl MA H2O'
p434
F-9.1286434294409897
sS'ClClI MA DMSO'
p435
F-14.346719982774832
sS'III Cs MCR'
p436
F-7.9748162533632208
sS'BrBrCl MA IPA'
p437
F-7.8753920372715323
sS'ClII MA NMP'
p438
F-13.244421781044215
sS'III FA THTO'
p439
F-16.493487638720197
sS'ClII MA PYR'
p440
F-11.448670053696549
sS'BrClI MA IPA'
p441
F-9.4876894112892831
sS'BrII MA THTO'
p442
F-15.874940306474826
sS'BrClI MA CH3OH'
p443
F-8.8528549067546116
sS'III Cs FAM'
p444
F-8.5915608412130116
sS'BrBrCl MA DMA'
p445
F-12.443577843054333
sS'BrBrCl MA DMF'
p446
F-11.980578418841313
sS'ClClCl FA DMF'
p447
F-11.300886007148373
sS'BrBrBr FA ETH'
p448
F-9.0119129883119804
sS'BrClCl FA THTO'
p449
F-13.112240097726371
sS'ClClCl FA DMA'
p450
F-11.656036882931298
sS'III Cs H2O'
p451
F-5.5439775037609271
sS'III FA NMP'
p452
F-13.43096088682683
sS'ClClI FA CH3OH'
p453
F-8.9084872076252513
sS'BrBrI FA DMA'
p454
F-11.67145898958508
sS'BrBrI Cs MCR'
p455
F-11.477119537125944
sS'BrII FA DMF'
p456
F-11.530864544934335
sS'BrII FA DMA'
p457
F-12.223285612558064
sS'ClClI MA FAM'
p458
F-12.249745700287002
sS'ClClI MA DMF'
p459
F-12.575050093471578
sS'ClII FA ACE'
p460
F-8.5698817785338317
sS'ClClI MA DMA'
p461
F-13.024638202961482
sS'BrBrBr Cs DMSO'
p462
F-13.145382459398441
sS'ClII MA ACE'
p463
F-9.3018213944348975
sS'BrII FA NM'
p464
F-7.9686639620049551
sS'BrBrCl Cs CH3OH'
p465
F-5.2016954621462279
sS'BrBrBr MA MCR'
p466
F-7.8602992166089107
sS'BrII FA THTO'
p467
F-13.402627422488242
sS'ClClCl FA MCR'
p468
F-7.1383908470908564
sS'ClClI MA H2O'
p469
F-5.9055487364295143
sS'ClII MA CH3OH'
p470
F-8.800299716336708
sS'BrClCl MA NMP'
p471
F-12.690572347703824
sS'ClII FA CHCl3'
p472
F-4.9758067449093621
sS'ClClI FA DMSO'
p473
F-12.427290606418261
sS'ClII MA CHCl3'
p474
F-5.130546105319028
sS'BrBrBr FA ACE'
p475
F-8.6142080051228156
sS'BrClCl FA GBL'
p476
F-9.614239781565443
sS'BrBrCl FA PYR'
p477
F-9.4649739683170022
sS'ClII Cs PYR'
p478
F-9.1776903748823511
sS'BrII Cs MCR'
p479
F-11.976359017012758
sS'ClII Cs IPA'
p480
F-7.6565038554116756
sS'BrII MA CHCl3'
p481
F-5.2129201053696166
s.