(dp1
S'BrBrBr MA GBL'
p2
F-5.9272471215464853
sS'ClII Cs CH3OH'
p3
F-4.2850992567397874
sS'ClClCl Cs PYR'
p4
F-2.716239322828863
sS'BrBrCl Cs DMA'
p5
F-7.468296843259262
sS'BrII FA CHCl3'
p6
F-1.5766951760862853
sS'BrClI FA H2O'
p7
F-7.8534596877072804
sS'BrClI MA NMP'
p8
F-7.9423296695110572
sS'BrBrI FA ETH'
p9
F-7.245663421399402
sS'BrClCl MA DMA'
p10
F-8.354404412214711
sS'ClClI Cs PYR'
p11
F-6.293504123494488
sS'BrBrI FA NMP'
p12
F-9.0338380742524294
sS'ClClCl Cs CH3OH'
p13
F-7.3085389919463113
sS'BrII Cs DMSO'
p14
F-9.7072289211969167
sS'BrClI FA IPA'
p15
F-6.8119883045610532
sS'BrClCl Cs CHCl3'
p16
F-1.5762400149616467
sS'ClClCl FA NMP'
p17
F-7.901175748507951
sS'BrII MA DMA'
p18
F-8.5984663934730818
sS'BrClI Cs GBL'
p19
F-5.6452321203781191
sS'BrII MA DMF'
p20
F-8.3371710468456826
sS'ClII Cs CHCl3'
p21
F-1.6984553104498785
sS'BrII MA ETH'
p22
F-4.5941486952522483
sS'ClII FA NMP'
p23
F-6.9350459984987713
sS'BrII MA H2O'
p24
F-5.0485008767707482
sS'BrII Cs DMF'
p25
F-8.0215869995389202
sS'BrII Cs DMA'
p26
F-7.9738122022597633
sS'BrBrBr MA H2O'
p27
F-5.1867261387825856
sS'BrBrCl Cs ETH'
p28
F-7.1496770882981151
sS'BrBrCl FA IPA'
p29
F-5.8807250729468183
sS'ClClCl FA DMSO'
p30
F-9.9100971342478275
sS'BrBrBr Cs CHCl3'
p31
F-1.4715555261708999
sS'BrClCl MA THTO'
p32
F-10.933489019465107
sS'ClClCl FA THTO'
p33
F-8.6545812824609847
sS'BrBrBr FA IPA'
p34
F-3.939145174789755
sS'BrClCl MA FAM'
p35
F-7.9610673549111075
sS'BrClI MA NM'
p36
F-4.1454221245953322
sS'BrBrI FA FAM'
p37
F-9.0945252108257382
sS'ClClCl MA NM'
p38
F-4.9730714917531662
sS'ClII FA FAM'
p39
F-9.966137826695407
sS'BrBrBr Cs NM'
p40
F-3.5983198920931692
sS'BrClI Cs H2O'
p41
F-5.9798300842323915
sS'BrBrCl MA H2O'
p42
F-7.3414724147877219
sS'BrBrI FA H2O'
p43
F-4.5385718754268956
sS'BrBrBr Cs ETH'
p44
F-4.2772232485280668
sS'ClClI MA THTO'
p45
F-11.077222514974322
sS'III FA MCR'
p46
F-4.304221351916139
sS'BrII FA ETH'
p47
F-4.7354712480640604
sS'BrClI FA GBL'
p48
F-6.2352994986417993
sS'BrBrCl FA CH3OH'
p49
F-3.7524687492788935
sS'ClClCl MA GBL'
p50
F-7.1969432074820929
sS'III Cs ETH'
p51
F-3.5555549648188265
sS'BrII MA CH3OH'
p52
F-6.1831914551074698
sS'III MA ACE'
p53
F-5.8298451743676303
sS'BrII FA GBL'
p54
F-5.4300988074210954
sS'BrClI MA FAM'
p55
F-8.4882206348891085
sS'ClII Cs H2O'
p56
F-7.6605524292497202
sS'BrClI MA THTO'
p57
F-11.110035684821245
sS'BrBrI MA NM'
p58
F-3.7809192054717355
sS'BrBrCl MA ETH'
p59
F-4.6033171733651042
sS'ClClI Cs CH3OH'
p60
F-7.0922894764499818
sS'BrBrI FA PYR'
p61
F-2.9929699152650189
sS'BrClI Cs DMSO'
p62
F-9.468101541479923
sS'BrClI MA DMF'
p63
F-8.6990271482532648
sS'ClClCl FA FAM'
p64
F-8.2612822824941166
sS'BrClI Cs THTO'
p65
F-10.137764085751236
sS'BrBrBr FA NM'
p66
F-4.8759540577652691
sS'ClClI Cs MCR'
p67
F-4.4827262836863726
sS'ClClI Cs CHCl3'
p68
F-1.6663477713367765
sS'BrII MA NMP'
p69
F-7.8556734938569672
sS'BrBrI FA NM'
p70
F-4.1778371656766247
sS'ClII FA THTO'
p71
F-9.0435956062886866
sS'BrBrCl Cs THTO'
p72
F-9.4785992493371332
sS'BrClCl MA IPA'
p73
F-4.9428666424161039
sS'BrBrCl MA PYR'
p74
F-6.5860492079366564
sS'ClClCl FA CH3OH'
p75
F-6.0969765161355705
sS'BrBrI FA DMF'
p76
F-7.5626226785731427
sS'BrClCl MA GBL'
p77
F-6.9163500544666903
sS'BrII Cs NMP'
p78
F-7.8805685510143473
sS'ClII FA DMA'
p79
F-6.9297868030018295
sS'ClII FA DMF'
p80
F-7.1475655481503964
sS'BrBrI Cs NMP'
p81
F-7.3685833526005862
sS'BrBrCl Cs GBL'
p82
F-6.4537724988418184
sS'III Cs DMF'
p83
F-8.0335092264396373
sS'III FA H2O'
p84
F-7.4793988499466337
sS'BrII Cs CH3OH'
p85
F-3.7679010329958431
sS'ClClI MA NM'
p86
F-4.3032790583080676
sS'ClII Cs DMSO'
p87
F-9.6052351149337394
sS'ClClI Cs THTO'
p88
F-10.168152500030764
sS'ClClI FA THTO'
p89
F-11.135988853932687
sS'BrBrBr MA DMA'
p90
F-8.2188176573402334
sS'BrClCl Cs ACE'
p91
F-5.7501173679692075
sS'BrBrBr MA DMF'
p92
F-8.3977225880701827
sS'ClClCl Cs ACE'
p93
F-6.023770262556452
sS'BrClCl Cs GBL'
p94
F-5.7743226930399407
sS'BrBrBr MA CHCl3'
p95
F-1.6197984519744622
sS'III MA IPA'
p96
F-4.6363180013798555
sS'BrClCl MA CH3OH'
p97
F-3.8406039028925112
sS'ClClCl MA FAM'
p98
F-7.9704581892273598
sS'ClII MA GBL'
p99
F-6.8100334957517346
sS'ClII MA IPA'
p100
F-4.6496979385607649
sS'BrII FA FAM'
p101
F-8.9156982272969341
sS'BrClI FA ACE'
p102
F-6.0095150231810619
sS'ClClCl MA THTO'
p103
F-11.268368984275259
sS'ClClI MA CH3OH'
p104
F-3.8919486960805147
sS'BrClI FA NMP'
p105
F-8.8333491751046704
sS'ClClI FA CHCl3'
p106
F-1.4174242371080434
sS'ClII Cs NM'
p107
F-5.2258757777227025
sS'BrBrCl FA DMF'
p108
F-6.6209907790692606
sS'III MA NM'
p109
F-4.1418853807030542
sS'BrBrCl FA ACE'
p110
F-5.4087458944341487
sS'BrClCl FA IPA'
p111
F-4.1281531413600048
sS'BrBrBr MA CH3OH'
p112
F-4.6177720369830597
sS'BrII Cs THTO'
p113
F-9.5327786175686438
sS'BrII MA ACE'
p114
F-5.2198929425273501
sS'BrBrI Cs FAM'
p115
F-6.6016772830540988
sS'BrBrCl FA ETH'
p116
F-4.8848925547958597
sS'ClClCl MA NMP'
p117
F-8.7851158826533187
sS'BrBrI Cs DMF'
p118
F-7.7523773784857282
sS'BrBrI Cs ACE'
p119
F-5.402882511251474
sS'BrBrI Cs DMA'
p120
F-7.8469056627372042
sS'ClII Cs ETH'
p121
F-3.693827267319663
sS'BrClCl FA PYR'
p122
F-0.42980752436980163
sS'BrClI Cs PYR'
p123
F-6.9832646984996876
sS'BrBrI FA CH3OH'
p124
F-5.2940936044675437
sS'BrII Cs H2O'
p125
F-6.9287886696615697
sS'ClClI FA NMP'
p126
F-6.5229860798083399
sS'BrClI FA PYR'
p127
F-5.8253055326201988
sS'ClClCl Cs IPA'
p128
F-4.5336065540786352
sS'ClII FA DMSO'
p129
F-8.7217962216233289
sS'ClClI FA NM'
p130
F-5.7512212535940446
sS'BrBrCl Cs FAM'
p131
F-8.6640628668465478
sS'BrBrBr FA FAM'
p132
F-7.3722839621908127
sS'ClClI FA H2O'
p133
F-8.6545547747283926
sS'III MA THTO'
p134
F-10.193717856548625
sS'ClII MA MCR'
p135
F-4.8056725688685207
sS'BrII MA MCR'
p136
F-9.9873686416047178
sS'III Cs NMP'
p137
F-7.5899300967678256
sS'ClII FA CH3OH'
p138
F-5.3362303117482908
sS'BrBrBr FA DMSO'
p139
F-9.6586719727405601
sS'ClII FA H2O'
p140
F-8.2686627646064483
sS'BrBrCl MA MCR'
p141
F-4.8195574197869115
sS'BrBrI Cs ETH'
p142
F-3.7099983588822174
sS'BrBrBr Cs IPA'
p143
F-4.1819847653497453
sS'ClII MA FAM'
p144
F-4.2753319394280478
sS'III Cs DMA'
p145
F-7.8680917372337156
sS'BrBrCl FA CHCl3'
p146
F-1.5061722730692388
sS'ClClCl Cs H2O'
p147
F-5.8339917240897083
sS'III Cs CH3OH'
p148
F-3.7596181327295994
sS'BrClI Cs IPA'
p149
F-4.2505507308348811
sS'ClClCl Cs ETH'
p150
F-4.5162765524084438
sS'III FA DMA'
p151
F-7.4820705976864987
sS'III Cs DMSO'
p152
F-9.6214560430024925
sS'III FA CHCl3'
p153
F-1.6844211089537044
sS'ClClCl MA PYR'
p154
F-6.4837257020652421
sS'BrClCl Cs NMP'
p155
F-7.1340284227832518
sS'BrClI Cs NM'
p156
F-3.7442737828048003
sS'III Cs IPA'
p157
F-4.3992876421247926
sS'ClClCl Cs DMSO'
p158
F-10.181322543737391
sS'BrClI MA ETH'
p159
F-4.8279623710477839
sS'BrBrI MA DMSO'
p160
F-10.481065761375071
sS'ClClI FA DMA'
p161
F-6.8292851456698509
sS'BrClI Cs CH3OH'
p162
F-7.0978081374065161
sS'ClClI FA DMF'
p163
F-8.2370773947246381
sS'ClClCl FA GBL'
p164
F-6.6286027509175236
sS'III FA CH3OH'
p165
F-5.9680490856628312
sS'ClClI Cs NMP'
p166
F-8.4171484025945258
sS'ClClI FA ETH'
p167
F-4.592967287172053
sS'BrBrI MA MCR'
p168
F-10.280609780667911
sS'ClClI MA CHCl3'
p169
F-1.5567212477393473
sS'BrBrCl Cs CHCl3'
p170
F-1.5478066319229733
sS'ClClCl MA ACE'
p171
F-6.5339630591417004
sS'BrBrBr MA ETH'
p172
F-4.6041863935765681
sS'ClClI Cs DMSO'
p173
F-9.8588466839905511
sS'ClClCl FA CHCl3'
p174
F-1.322838224953147
sS'BrClI FA CH3OH'
p175
F-6.4592041011794183
sS'BrBrCl FA DMA'
p176
F-8.9317531626572588
sS'BrBrCl FA DMSO'
p177
F-8.9660502730125806
sS'BrClI MA CHCl3'
p178
F-1.6018479641938381
sS'III Cs NM'
p179
F-3.6559455061130697
sS'BrBrCl FA THTO'
p180
F-11.520317506071203
sS'BrClCl FA DMF'
p181
F-7.8894109969998105
sS'BrClI FA FAM'
p182
F-9.0344131406706882
sS'BrBrI Cs GBL'
p183
F-5.6397729955978022
sS'BrII FA PYR'
p184
F-3.384551550874725
sS'BrBrI Cs IPA'
p185
F-4.1535323670542281
sS'ClClCl FA H2O'
p186
F-9.2774213508855148
sS'III MA FAM'
p187
F-7.2524977142426961
sS'BrII MA PYR'
p188
F-11.60807539439805
sS'BrBrI MA ACE'
p189
F-5.8742804720224395
sS'BrClCl MA ETH'
p190
F-4.8695207678911334
sS'BrClCl FA MCR'
p191
F-4.0537751197322347
sS'BrBrCl MA CH3OH'
p192
F-6.5261872612593548
sS'BrII FA CH3OH'
p193
F-5.1661868346988324
sS'BrBrCl MA DMSO'
p194
F-10.840586522838031
sS'ClClI Cs ETH'
p195
F-7.2241811016254722
sS'BrBrBr FA THTO'
p196
F-8.4779776041497446
sS'BrBrCl FA MCR'
p197
F-3.97516995754177
sS'BrBrI FA IPA'
p198
F-4.8326791038243053
sS'BrClCl MA CHCl3'
p199
F-1.5030665267320213
sS'BrBrBr MA FAM'
p200
F-7.2798175997321168
sS'BrBrBr Cs NMP'
p201
F-6.9993914779621242
sS'ClClI MA MCR'
p202
F-5.0595057790377318
sS'ClClCl Cs MCR'
p203
F-4.5905390311971486
sS'BrBrI FA DMSO'
p204
F-8.3682781753704489
sS'BrBrI FA GBL'
p205
F-5.2827365875143908
sS'ClClI Cs FAM'
p206
F-9.002118125158697
sS'ClClCl MA DMSO'
p207
F-11.163327818169673
sS'ClClI Cs DMF'
p208
F-8.2984333486851316
sS'ClClI Cs ACE'
p209
F-5.9019445636797156
sS'BrClCl FA FAM'
p210
F-9.126722426230252
sS'ClClI Cs DMA'
p211
F-8.2123978792901973
sS'BrClI FA DMF'
p212
F-8.0539175634341085
sS'BrBrI Cs CH3OH'
p213
F-4.2392154921976681
sS'BrClI FA DMA'
p214
F-8.6497144479187149
sS'ClII FA PYR'
p215
F-3.9803631846104444
sS'III Cs THTO'
p216
F-10.022998915988941
sS'BrBrI FA ACE'
p217
F-5.1248654226062875
sS'BrBrCl Cs DMF'
p218
F-7.8997558471659639
sS'BrII Cs ETH'
p219
F-6.3736615133883463
sS'BrClCl FA H2O'
p220
F-8.5662130699632417
sS'BrBrBr MA NM'
p221
F-5.0934170926655256
sS'BrBrCl Cs PYR'
p222
F-6.0022894644196834
sS'BrBrBr MA DMSO'
p223
F-10.273012302395772
sS'ClClI FA MCR'
p224
F-3.8394301370976307
sS'BrBrI Cs CHCl3'
p225
F-1.5004123372439659
sS'BrClCl Cs DMF'
p226
F-7.6331490640205519
sS'BrII FA DMSO'
p227
F-8.6314088669524018
sS'BrClCl Cs DMA'
p228
F-8.2303117788665627
sS'BrBrCl Cs H2O'
p229
F-4.9688773445358549
sS'BrBrBr Cs CH3OH'
p230
F-3.7062666288515316
sS'ClClCl MA CH3OH'
p231
F-7.6906338446358475
sS'BrBrBr FA CH3OH'
p232
F-5.7566753847221692
sS'ClClCl MA IPA'
p233
F-5.0337470417693053
sS'BrClI FA THTO'
p234
F-9.6653274938341127
sS'BrBrBr MA ACE'
p235
F-5.7949289925322036
sS'BrClCl Cs FAM'
p236
F-8.6606380395457894
sS'BrClCl MA MCR'
p237
F-4.8849947311974402
sS'BrBrCl FA NMP'
p238
F-7.6585070133322191
sS'BrClI Cs ACE'
p239
F-5.436458597583405
sS'BrClCl MA NM'
p240
F-4.9281520287003806
sS'BrClCl MA DMSO'
p241
F-10.815827494763818
sS'BrClI FA CHCl3'
p242
F-1.5644942764275378
sS'BrClI Cs ETH'
p243
F-4.5949321336503051
sS'III FA ETH'
p244
F-4.1920331302578226
sS'ClII FA IPA'
p245
F-4.8609530806391135
sS'BrII Cs IPA'
p246
F-4.271604441018229
sS'ClClCl MA DMA'
p247
F-8.9467712242089696
sS'BrBrI MA PYR'
p248
F-6.7500975502827378
sS'ClClCl MA DMF'
p249
F-9.1121297546475422
sS'BrClI MA DMSO'
p250
F-10.410102024449554
sS'BrBrCl MA THTO'
p251
F-10.932007318966404
sS'BrBrI MA ETH'
p252
F-4.7208382257741777
sS'BrBrBr MA IPA'
p253
F-4.5962972489207159
sS'BrII Cs FAM'
p254
F-8.0238215173604388
sS'BrII Cs NM'
p255
F-3.9794258806596439
sS'BrBrBr FA DMA'
p256
F-7.2516567639523455
sS'BrClCl Cs THTO'
p257
F-9.9302674615087163
sS'BrBrBr FA DMF'
p258
F-7.5778848565243662
sS'ClII Cs ACE'
p259
F-5.8545197740508552
sS'BrBrBr MA PYR'
p260
F-6.1591696450426809
sS'BrBrI MA CH3OH'
p261
F-3.996857077407423
sS'BrBrBr Cs ACE'
p262
F-5.4518673326633751
sS'BrBrI FA CHCl3'
p263
F-1.5792562682031477
sS'BrBrBr Cs GBL'
p264
F-5.527682106783792
sS'BrBrBr MA THTO'
p265
F-10.588654716365404
sS'III FA FAM'
p266
F-8.7436683036553298
sS'ClII MA DMSO'
p267
F-10.405021602414461
sS'BrBrCl MA GBL'
p268
F-6.8655760608351608
sS'BrBrI FA MCR'
p269
F-3.8268514968990979
sS'BrII Cs CHCl3'
p270
F-1.5346981833467006
sS'BrBrBr Cs DMF'
p271
F-6.4570544366373515
sS'BrBrBr Cs DMA'
p272
F-7.5044748284070097
sS'ClII MA THTO'
p273
F-10.866978551795896
sS'ClClCl FA PYR'
p274
F-5.7028969394187028
sS'BrClI Cs CHCl3'
p275
F-1.6191996928166896
sS'BrBrBr Cs FAM'
p276
F-6.6702071478581066
sS'BrII FA ACE'
p277
F-5.0191284114703913
sS'BrBrCl FA FAM'
p278
F-9.6366438863032435
sS'ClClI Cs GBL'
p279
F-6.6054200576166755
sS'ClII MA H2O'
p280
F-7.3482910937646935
sS'ClClI Cs IPA'
p281
F-6.9820867458841338
sS'ClClCl Cs DMA'
p282
F-7.8692039432818364
sS'BrBrCl FA NM'
p283
F-4.9302606645399836
sS'ClClCl Cs DMF'
p284
F-6.8126942187916431
sS'BrBrCl MA CHCl3'
p285
F-1.5578577346365334
sS'ClClI MA ACE'
p286
F-6.3074347763334586
sS'BrBrI Cs NM'
p287
F-3.7732367238252253
sS'III MA PYR'
p288
F-0.018978711442234276
sS'III FA ACE'
p289
F-5.5525352325290687
sS'III MA CH3OH'
p290
F-4.6016964310415274
sS'BrII MA DMSO'
p291
F-10.363989483864779
sS'BrClI FA MCR'
p292
F-4.3606700712613709
sS'III MA H2O'
p293
F-4.9775622014161476
sS'ClClI FA GBL'
p294
F-7.203534714948197
sS'ClClI FA IPA'
p295
F-5.8739167391050797
sS'BrII MA GBL'
p296
F-6.2696961692956572
sS'BrClCl FA ETH'
p297
F-3.5735065091135785
sS'BrBrBr FA CHCl3'
p298
F-1.5277822664048148
sS'BrBrBr Cs THTO'
p299
F-9.7488254164676214
sS'BrClI FA DMSO'
p300
F-8.6243339461323441
sS'BrBrI Cs H2O'
p301
F-6.9328518015651888
sS'BrBrI MA THTO'
p302
F-10.751599340588012
sS'BrBrI FA THTO'
p303
F-10.724548228440518
sS'BrClI Cs DMF'
p304
F-8.081827232776206
sS'ClII Cs THTO'
p305
F-10.029858312492507
sS'ClClCl FA IPA'
p306
F-3.9904907691022453
sS'BrClI Cs DMA'
p307
F-12.968560646660043
sS'III FA IPA'
p308
F-5.1837787248913356
sS'BrBrCl Cs ACE'
p309
F-5.3990399575257202
sS'ClClI Cs H2O'
p310
F-4.7702828702417284
sS'ClClCl Cs CHCl3'
p311
F-1.2106483565310135
sS'BrII Cs ACE'
p312
F-5.3794143673798125
sS'ClClCl MA CHCl3'
p313
F-1.4693359877365246
sS'BrII FA IPA'
p314
F-4.2154314256334624
sS'BrClCl FA ACE'
p315
F-5.5416249578309857
sS'BrBrCl MA FAM'
p316
F-7.3148456398046706
sS'III MA DMF'
p317
F-8.552675340221505
sS'BrBrCl Cs DMSO'
p318
F-9.4747566687883324
sS'III MA DMA'
p319
F-8.3833059803936418
sS'BrBrCl Cs NM'
p320
F-4.806012570238555
sS'III MA DMSO'
p321
F-10.171022518162745
sS'BrClI Cs MCR'
p322
F-4.7337130770079439
sS'BrBrI MA GBL'
p323
F-6.1010402017638787
sS'BrII Cs PYR'
p324
F-7.2352116174759544
sS'BrBrI MA IPA'
p325
F-6.2707629760542396
sS'BrBrI MA CHCl3'
p326
F-1.6573195554973914
sS'BrBrCl MA NMP'
p327
F-8.457887607203503
sS'BrClCl FA DMA'
p328
F-6.7835661001695007
sS'BrClI MA PYR'
p329
F-6.2499179334748991
sS'BrBrBr FA GBL'
p330
F-5.3920272456272063
sS'BrClCl Cs CH3OH'
p331
F-6.473997929342536
sS'ClII FA NM'
p332
F-5.3830506388978732
sS'ClClI MA PYR'
p333
F-6.7683402847094571
sS'ClClCl MA ETH'
p334
F-5.0891654826363881
sS'BrClCl Cs H2O'
p335
F-7.8152176511881057
sS'BrII FA NMP'
p336
F-8.4028030025434575
sS'BrII FA H2O'
p337
F-7.5635029464553654
sS'ClClI MA ETH'
p338
F-5.031929767557954
sS'III MA ETH'
p339
F-4.7475588490310381
sS'BrBrI Cs THTO'
p340
F-10.035573439135256
sS'BrBrI MA NMP'
p341
F-7.1864222547446346
sS'BrBrCl Cs IPA'
p342
F-4.249586374130021
sS'ClClI FA PYR'
p343
F-5.6184810648060717
sS'BrClI FA NM'
p344
F-5.585782249308993
sS'III FA PYR'
p345
F-3.7302871240163609
sS'ClClI FA ACE'
p346
F-6.1791569930451677
sS'BrClI Cs NMP'
p347
F-7.8468159288047774
sS'BrClCl MA ACE'
p348
F-6.1245766907568999
sS'ClII Cs NMP'
p349
F-7.2400584110652204
sS'BrClCl Cs NM'
p350
F-4.7735781480797268
sS'ClClCl Cs GBL'
p351
F-6.6499232996165869
sS'III MA CHCl3'
p352
F-1.7153732815974405
sS'BrClI MA DMA'
p353
F-8.7176989140201631
sS'BrII Cs GBL'
p354
F-5.7498957399829767
sS'ClII MA ETH'
p355
F-4.8641868600809346
sS'BrBrBr Cs MCR'
p356
F-4.2871082663646449
sS'BrBrBr FA MCR'
p357
F-4.2506434309967114
sS'ClII FA ETH'
p358
F-4.985302949709812
sS'BrClCl Cs ETH'
p359
F-4.6553855441875536
sS'ClII FA MCR'
p360
F-4.0124338849806236
sS'III Cs PYR'
p361
F-1.0008465034958838
sS'BrII MA NM'
p362
F-3.711267541813748
sS'BrClCl Cs DMSO'
p363
F-10.051937796023672
sS'BrClI MA H2O'
p364
F-7.371126163384802
sS'BrClCl MA PYR'
p365
F-6.548976635680364
sS'BrBrCl Cs NMP'
p366
F-7.56410370050585
sS'BrClCl FA CHCl3'
p367
F-1.4670102996655325
sS'BrBrBr FA NMP'
p368
F-8.3082190673198451
sS'BrBrBr FA PYR'
p369
F-11.26809093372629
sS'ClII Cs GBL'
p370
F-6.503831297611498
sS'BrClI MA MCR'
p371
F-4.6757823579729045
sS'III FA GBL'
p372
F-5.5479731176346645
sS'ClClCl FA NM'
p373
F-4.4631963525125569
sS'BrBrI MA FAM'
p374
F-7.4324194268930013
sS'ClII Cs MCR'
p375
F-4.3868571296299601
sS'BrBrI MA DMF'
p376
F-8.2818239932328748
sS'BrBrI MA DMA'
p377
F-8.4904907160747811
sS'ClII FA GBL'
p378
F-5.7482092336855199
sS'ClII Cs DMA'
p379
F-7.8896208936129604
sS'BrBrI MA H2O'
p380
F-5.146217457566503
sS'ClII Cs DMF'
p381
F-7.9932345651717114
sS'BrClCl FA NMP'
p382
F-9.0785125388840502
sS'ClClCl FA ACE'
p383
F-5.1589073698900707
sS'BrBrCl FA GBL'
p384
F-5.3914652309036688
sS'BrII FA MCR'
p385
F-4.6949810693280787
sS'ClClCl FA ETH'
p386
F-3.5207859319312695
sS'III MA GBL'
p387
F-6.085043730371309
sS'BrBrCl MA ACE'
p388
F-5.87803989827494
sS'BrBrI Cs DMSO'
p389
F-9.6995827930530112
sS'BrClCl FA CH3OH'
p390
F-6.0717376701369812
sS'ClII MA DMA'
p391
F-8.5542462745740373
sS'ClII MA DMF'
p392
F-8.6650275207450509
sS'BrBrBr FA H2O'
p393
F-7.787134625640733
sS'BrClCl FA DMSO'
p394
F-11.097279120081735
sS'BrII MA FAM'
p395
F-7.2057044157349672
sS'III FA NM'
p396
F-4.7768193941729811
sS'BrBrBr MA NMP'
p397
F-6.9061440455232699
sS'III FA DMSO'
p398
F-8.541607894315602
sS'BrClCl Cs MCR'
p399
F-4.6154751980968349
sS'BrClCl Cs IPA'
p400
F-4.6145163167175891
sS'BrBrCl FA H2O'
p401
F-5.7308949818516668
sS'ClClCl MA H2O'
p402
F-8.5960389916980553
sS'III Cs CHCl3'
p403
F-1.5707771326720692
sS'III Cs GBL'
p404
F-5.6994730817425241
sS'ClClCl Cs FAM'
p405
F-8.9191298439672142
sS'BrBrBr Cs PYR'
p406
F-6.0876039210626125
sS'III FA DMF'
p407
F-7.0932754005959833
sS'III Cs ACE'
p408
F-5.4228179054392314
sS'BrII MA IPA'
p409
F-6.0333209707877655
sS'BrBrI Cs PYR'
p410
F-2.2635627112241679
sS'BrClI MA GBL'
p411
F-6.1379855745701324
sS'BrBrBr Cs H2O'
p412
F-5.0362416920596713
sS'ClClCl Cs NM'
p413
F-4.7608093988288687
sS'BrClCl MA DMF'
p414
F-8.988512334933775
sS'ClClCl Cs THTO'
p415
F-9.8603308166832218
sS'ClClCl Cs NMP'
p416
F-7.8528963172785105
sS'ClII Cs FAM'
p417
F-7.1862323440116382
sS'ClClCl MA MCR'
p418
F-8.0276298739852798
sS'ClClI MA GBL'
p419
F-7.0267376393360008
sS'ClClI MA IPA'
p420
F-5.0299601791075803
sS'BrBrCl Cs MCR'
p421
F-4.4285179190286916
sS'BrClCl Cs PYR'
p422
F-1.294823836299098
sS'ClClI Cs NM'
p423
F-4.9771306947939147
sS'ClClI FA FAM'
p424
F-10.081204294455084
sS'III MA MCR'
p425
F-9.9491323336606623
sS'ClII MA NM'
p426
F-5.3571301466769423
sS'III MA NMP'
p427
F-8.0606653114339419
sS'BrClCl FA NM'
p428
F-6.1385064832609357
sS'BrClI MA ACE'
p429
F-5.8811464590054916
sS'BrClI FA ETH'
p430
F-4.8236577969167413
sS'BrClI Cs FAM'
p431
F-7.0012670375111572
sS'BrBrCl MA NM'
p432
F-3.8076158698987568
sS'ClClI MA NMP'
p433
F-8.5238288240617983
sS'BrClCl MA H2O'
p434
F-7.9752243252037447
sS'ClClI MA DMSO'
p435
F-10.744891781215671
sS'III Cs MCR'
p436
F-4.2888633066861894
sS'BrBrCl MA IPA'
p437
F-4.5471098929657536
sS'ClII MA NMP'
p438
F-8.1942113960726068
sS'III FA THTO'
p439
F-11.268262566265507
sS'ClII MA PYR'
p440
F-6.7998746608418408
sS'BrClI MA IPA'
p441
F-6.0538417201720822
sS'BrII MA THTO'
p442
F-10.830252226684447
sS'BrClI MA CH3OH'
p443
F-6.4677533532943023
sS'III Cs FAM'
p444
F-6.8326822944405921
sS'BrBrCl MA DMA'
p445
F-8.3277937775715962
sS'BrBrCl MA DMF'
p446
F-8.5594217520626845
sS'ClClCl FA DMF'
p447
F-8.0847821512706464
sS'BrBrBr FA ETH'
p448
F-7.077395698626133
sS'BrClCl FA THTO'
p449
F-9.3208530903816733
sS'ClClCl FA DMA'
p450
F-7.7573775200000199
sS'III Cs H2O'
p451
F-4.8260206732863091
sS'III FA NMP'
p452
F-8.5078081010686954
sS'ClClI FA CH3OH'
p453
F-6.9281196356925552
sS'BrBrI FA DMA'
p454
F-7.2640316715593176
sS'BrBrI Cs MCR'
p455
F-9.137868036204484
sS'BrII FA DMF'
p456
F-7.1869198402261869
sS'BrII FA DMA'
p457
F-7.5273595547618379
sS'ClClI MA FAM'
p458
F-9.5589939975069775
sS'ClClI MA DMF'
p459
F-8.9390329106774384
sS'ClII FA ACE'
p460
F-4.7445576693426919
sS'ClClI MA DMA'
p461
F-8.2045106549076277
sS'BrBrBr Cs DMSO'
p462
F-9.6718490594942388
sS'ClII MA ACE'
p463
F-6.0027263405021039
sS'BrII FA NM'
p464
F-5.2739744117770728
sS'BrBrCl Cs CH3OH'
p465
F-3.5842488051990928
sS'BrBrBr MA MCR'
p466
F-4.5999440737379675
sS'BrII FA THTO'
p467
F-8.6335844819354755
sS'ClClCl FA MCR'
p468
F-3.8418560397782708
sS'ClClI MA H2O'
p469
F-5.0654155366988798
sS'ClII MA CH3OH'
p470
F-6.6445047880668708
sS'BrClCl MA NMP'
p471
F-8.75394332872429
sS'ClII FA CHCl3'
p472
F-1.6693281621656957
sS'ClClI FA DMSO'
p473
F-8.4712282959902918
sS'ClII MA CHCl3'
p474
F-1.6246109692777579
sS'BrBrBr FA ACE'
p475
F-5.4357206950156041
sS'BrClCl FA GBL'
p476
F-6.2611865388147248
sS'BrBrCl FA PYR'
p477
F-11.13835456398586
sS'ClII Cs PYR'
p478
F-3.2404126487084985
sS'BrII Cs MCR'
p479
F-8.9695233090316009
sS'ClII Cs IPA'
p480
F-6.5480388396408093
sS'BrII MA CHCl3'
p481
F-1.7971324199593985
s.